target datalayout = "e-m:e-p270:32:32-p271:32:32-p272:64:64-i64:64-i128:128-f80:128-n8:16:32:64-S128"
target triple = "x86_64-pc-linux-gnu"

%struct._zend_mm_heap = type { i32, ptr, i64, i64, [30 x ptr], i64, i64, i64, i32, ptr, ptr, ptr, i32, i32, i32, double, i32, i32, %struct.anon, ptr }
%struct.anon = type { ptr, ptr, ptr }
%struct._zend_mm_chunk = type { ptr, ptr, ptr, i32, i32, i32, [28 x i8], %struct._zend_mm_heap, [8 x i64], [512 x i32] }
%struct._zend_mm_huge_list = type { ptr, i64, ptr }
%struct._zend_mm_storage = type { %struct._zend_mm_handlers, ptr }
%struct._zend_mm_handlers = type { ptr, ptr, ptr, ptr }

@.str = private unnamed_addr constant [23 x i8] c"zend_mm_heap corrupted\00", align 1
@stderr = external global ptr, align 8
@.str.4 = private unnamed_addr constant [27 x i8] c"\0Amunmap() failed: [%d] %s\0A\00", align 1

; Function Attrs: nounwind uwtable
define internal void @zend_mm_munmap(ptr noundef %0, i64 noundef %1) #0 {
  %3 = alloca ptr, align 8
  %4 = alloca i64, align 8
  store ptr %0, ptr %3, align 8
  store i64 %1, ptr %4, align 8
  %5 = load ptr, ptr %3, align 8
  %6 = load i64, ptr %4, align 8
  %7 = call i32 @munmap(ptr noundef %5, i64 noundef %6) #20
  %8 = icmp ne i32 %7, 0
  br i1 %8, label %9, label %17

9:                                                ; preds = %2
  %10 = load ptr, ptr @stderr, align 8
  %11 = call ptr @__errno_location() #28
  %12 = load i32, ptr %11, align 4
  %13 = call ptr @__errno_location() #28
  %14 = load i32, ptr %13, align 4
  %15 = call ptr @strerror(i32 noundef %14) #20
  %16 = call i32 (ptr, ptr, ...) @fprintf(ptr noundef %10, ptr noundef @.str.4, i32 noundef %12, ptr noundef %15) #20
  br label %17

17:                                               ; preds = %9, %2
  ret void
}

; Function Attrs: nounwind uwtable
define internal void @zend_mm_chunk_free(ptr noundef %0, ptr noundef %1, i64 noundef %2) #0 {
  %4 = alloca ptr, align 8
  %5 = alloca ptr, align 8
  %6 = alloca i64, align 8
  store ptr %0, ptr %4, align 8
  store ptr %1, ptr %5, align 8
  store i64 %2, ptr %6, align 8
  %7 = load ptr, ptr %4, align 8
  %8 = getelementptr inbounds %struct._zend_mm_heap, ptr %7, i32 0, i32 1
  %9 = load ptr, ptr %8, align 8
  %10 = icmp ne ptr %9, null
  %11 = xor i1 %10, true
  %12 = xor i1 %11, true
  %13 = zext i1 %12 to i32
  %14 = sext i32 %13 to i64
  %15 = icmp ne i64 %14, 0
  br i1 %15, label %16, label %28

16:                                               ; preds = %3
  %17 = load ptr, ptr %4, align 8
  %18 = getelementptr inbounds %struct._zend_mm_heap, ptr %17, i32 0, i32 1
  %19 = load ptr, ptr %18, align 8
  %20 = getelementptr inbounds %struct._zend_mm_storage, ptr %19, i32 0, i32 0
  %21 = getelementptr inbounds %struct._zend_mm_handlers, ptr %20, i32 0, i32 1
  %22 = load ptr, ptr %21, align 8
  %23 = load ptr, ptr %4, align 8
  %24 = getelementptr inbounds %struct._zend_mm_heap, ptr %23, i32 0, i32 1
  %25 = load ptr, ptr %24, align 8
  %26 = load ptr, ptr %5, align 8
  %27 = load i64, ptr %6, align 8
  call void %22(ptr noundef %25, ptr noundef %26, i64 noundef %27)
  br label %31

28:                                               ; preds = %3
  %29 = load ptr, ptr %5, align 8
  %30 = load i64, ptr %6, align 8
  call void @zend_mm_munmap(ptr noundef %29, i64 noundef %30)
  br label %31

31:                                               ; preds = %28, %16
  ret void
}

; Function Attrs: nounwind uwtable
define internal i64 @zend_mm_del_huge_block(ptr noundef %0, ptr noundef %1) #0 {
  %3 = alloca ptr, align 8
  %4 = alloca ptr, align 8
  %5 = alloca i32, align 4
  %6 = alloca i32, align 4
  %7 = alloca ptr, align 8
  %8 = alloca ptr, align 8
  %9 = alloca i32, align 4
  %10 = alloca ptr, align 8
  %11 = alloca ptr, align 8
  %12 = alloca ptr, align 8
  %13 = alloca i64, align 8
  %14 = alloca ptr, align 8
  %15 = alloca i32, align 4
  %16 = alloca i32, align 4
  %17 = alloca i32, align 4
  %18 = alloca i64, align 8
  %19 = alloca ptr, align 8
  %20 = alloca ptr, align 8
  %21 = alloca ptr, align 8
  %22 = alloca ptr, align 8
  %23 = alloca i64, align 8
  store ptr %0, ptr %19, align 8
  store ptr %1, ptr %20, align 8
  store ptr null, ptr %21, align 8
  %24 = load ptr, ptr %19, align 8
  %25 = getelementptr inbounds %struct._zend_mm_heap, ptr %24, i32 0, i32 9
  %26 = load ptr, ptr %25, align 8
  store ptr %26, ptr %22, align 8
  br label %27

27:                                               ; preds = %148, %2
  %28 = load ptr, ptr %22, align 8
  %29 = icmp ne ptr %28, null
  br i1 %29, label %30, label %153

30:                                               ; preds = %27
  %31 = load ptr, ptr %22, align 8
  %32 = getelementptr inbounds %struct._zend_mm_huge_list, ptr %31, i32 0, i32 0
  %33 = load ptr, ptr %32, align 8
  %34 = load ptr, ptr %20, align 8
  %35 = icmp eq ptr %33, %34
  br i1 %35, label %36, label %148

36:                                               ; preds = %30
  %37 = load ptr, ptr %21, align 8
  %38 = icmp ne ptr %37, null
  br i1 %38, label %39, label %45

39:                                               ; preds = %36
  %40 = load ptr, ptr %22, align 8
  %41 = getelementptr inbounds %struct._zend_mm_huge_list, ptr %40, i32 0, i32 2
  %42 = load ptr, ptr %41, align 8
  %43 = load ptr, ptr %21, align 8
  %44 = getelementptr inbounds %struct._zend_mm_huge_list, ptr %43, i32 0, i32 2
  store ptr %42, ptr %44, align 8
  br label %51

45:                                               ; preds = %36
  %46 = load ptr, ptr %22, align 8
  %47 = getelementptr inbounds %struct._zend_mm_huge_list, ptr %46, i32 0, i32 2
  %48 = load ptr, ptr %47, align 8
  %49 = load ptr, ptr %19, align 8
  %50 = getelementptr inbounds %struct._zend_mm_heap, ptr %49, i32 0, i32 9
  store ptr %48, ptr %50, align 8
  br label %51

51:                                               ; preds = %45, %39
  %52 = load ptr, ptr %22, align 8
  %53 = getelementptr inbounds %struct._zend_mm_huge_list, ptr %52, i32 0, i32 1
  %54 = load i64, ptr %53, align 8
  store i64 %54, ptr %23, align 8
  %55 = load ptr, ptr %19, align 8
  %56 = load ptr, ptr %22, align 8
  store ptr %55, ptr %11, align 8
  store ptr %56, ptr %12, align 8
  %57 = load ptr, ptr %12, align 8
  %58 = ptrtoint ptr %57 to i64
  %59 = and i64 %58, 2097151
  store i64 %59, ptr %13, align 8
  %60 = load i64, ptr %13, align 8
  %61 = icmp eq i64 %60, 0
  br i1 %61, label %62, label %69

62:                                               ; preds = %51
  %63 = load ptr, ptr %12, align 8
  %64 = icmp ne ptr %63, null
  br i1 %64, label %65, label %68

65:                                               ; preds = %62
  %66 = load ptr, ptr %11, align 8
  %67 = load ptr, ptr %12, align 8
  call void @zend_mm_free_huge(ptr noundef %66, ptr noundef %67)
  br label %68

68:                                               ; preds = %65, %62
  br label %146

69:                                               ; preds = %51
  %70 = load ptr, ptr %12, align 8
  %71 = ptrtoint ptr %70 to i64
  %72 = and i64 %71, -2097152
  %73 = inttoptr i64 %72 to ptr
  store ptr %73, ptr %14, align 8
  %74 = load i64, ptr %13, align 8
  %75 = udiv i64 %74, 4096
  %76 = trunc i64 %75 to i32
  store i32 %76, ptr %15, align 4
  %77 = load ptr, ptr %14, align 8
  %78 = getelementptr inbounds %struct._zend_mm_chunk, ptr %77, i32 0, i32 9
  %79 = load i32, ptr %15, align 4
  %80 = sext i32 %79 to i64
  %81 = getelementptr inbounds [512 x i32], ptr %78, i64 0, i64 %80
  %82 = load i32, ptr %81, align 4
  store i32 %82, ptr %16, align 4
  %83 = load ptr, ptr %14, align 8
  %84 = load ptr, ptr %83, align 8
  %85 = load ptr, ptr %11, align 8
  %86 = icmp eq ptr %84, %85
  %87 = xor i1 %86, true
  br i1 %87, label %88, label %89

88:                                               ; preds = %69
  call void @zend_mm_panic(ptr noundef @.str) #19
  unreachable

89:                                               ; preds = %69
  %90 = load i32, ptr %16, align 4
  %91 = and i32 %90, -2147483648
  %92 = icmp ne i32 %91, 0
  br i1 %92, label %93, label %121

93:                                               ; preds = %89
  %94 = load ptr, ptr %11, align 8
  %95 = load ptr, ptr %12, align 8
  %96 = load i32, ptr %16, align 4
  %97 = and i32 %96, 31
  store ptr %94, ptr %7, align 8
  store ptr %95, ptr %8, align 8
  store i32 %97, ptr %9, align 4
  %98 = load i32, ptr %9, align 4
  %99 = sext i32 %98 to i64
  %100 = getelementptr inbounds [30 x i32], ptr @bin_data_size, i64 0, i64 %99
  %101 = load i32, ptr %100, align 4
  %102 = zext i32 %101 to i64
  %103 = load ptr, ptr %7, align 8
  %104 = getelementptr inbounds %struct._zend_mm_heap, ptr %103, i32 0, i32 2
  %105 = load i64, ptr %104, align 8
  %106 = sub i64 %105, %102
  store i64 %106, ptr %104, align 8
  %107 = load ptr, ptr %8, align 8
  store ptr %107, ptr %10, align 8
  %108 = load ptr, ptr %7, align 8
  %109 = getelementptr inbounds %struct._zend_mm_heap, ptr %108, i32 0, i32 4
  %110 = load i32, ptr %9, align 4
  %111 = sext i32 %110 to i64
  %112 = getelementptr inbounds [30 x ptr], ptr %109, i64 0, i64 %111
  %113 = load ptr, ptr %112, align 8
  %114 = load ptr, ptr %10, align 8
  store ptr %113, ptr %114, align 8
  %115 = load ptr, ptr %10, align 8
  %116 = load ptr, ptr %7, align 8
  %117 = getelementptr inbounds %struct._zend_mm_heap, ptr %116, i32 0, i32 4
  %118 = load i32, ptr %9, align 4
  %119 = sext i32 %118 to i64
  %120 = getelementptr inbounds [30 x ptr], ptr %117, i64 0, i64 %119
  store ptr %115, ptr %120, align 8
  br label %145

121:                                              ; preds = %89
  %122 = load i32, ptr %16, align 4
  %123 = and i32 %122, 1023
  store i32 %123, ptr %17, align 4
  %124 = load i64, ptr %13, align 8
  %125 = and i64 %124, 4095
  %126 = icmp eq i64 %125, 0
  %127 = xor i1 %126, true
  br i1 %127, label %128, label %129

128:                                              ; preds = %121
  call void @zend_mm_panic(ptr noundef @.str) #19
  unreachable

129:                                              ; preds = %121
  %130 = load ptr, ptr %11, align 8
  %131 = load ptr, ptr %14, align 8
  %132 = load i32, ptr %15, align 4
  %133 = load i32, ptr %17, align 4
  store ptr %130, ptr %3, align 8
  store ptr %131, ptr %4, align 8
  store i32 %132, ptr %5, align 4
  store i32 %133, ptr %6, align 4
  %134 = load i32, ptr %6, align 4
  %135 = mul nsw i32 %134, 4096
  %136 = sext i32 %135 to i64
  %137 = load ptr, ptr %3, align 8
  %138 = getelementptr inbounds %struct._zend_mm_heap, ptr %137, i32 0, i32 2
  %139 = load i64, ptr %138, align 8
  %140 = sub i64 %139, %136
  store i64 %140, ptr %138, align 8
  %141 = load ptr, ptr %3, align 8
  %142 = load ptr, ptr %4, align 8
  %143 = load i32, ptr %5, align 4
  %144 = load i32, ptr %6, align 4
  call void @zend_mm_free_pages(ptr noundef %141, ptr noundef %142, i32 noundef %143, i32 noundef %144)
  br label %145

145:                                              ; preds = %129, %93
  br label %146

146:                                              ; preds = %145, %68
  %147 = load i64, ptr %23, align 8
  store i64 %147, ptr %18, align 8
  br label %156

148:                                              ; preds = %30
  %149 = load ptr, ptr %22, align 8
  store ptr %149, ptr %21, align 8
  %150 = load ptr, ptr %22, align 8
  %151 = getelementptr inbounds %struct._zend_mm_huge_list, ptr %150, i32 0, i32 2
  %152 = load ptr, ptr %151, align 8
  store ptr %152, ptr %22, align 8
  br label %27

153:                                              ; preds = %27
  br label %154

154:                                              ; preds = %153
  call void @zend_mm_panic(ptr noundef @.str) #19
  unreachable

155:                                              ; No predecessors!
  store i64 0, ptr %18, align 8
  br label %156

156:                                              ; preds = %155, %146
  %157 = load i64, ptr %18, align 8
  ret i64 %157
}

; Function Attrs: nounwind uwtable
define internal void @zend_mm_free_huge(ptr noundef %0, ptr noundef %1) #0 {
  %3 = alloca ptr, align 8
  %4 = alloca ptr, align 8
  %5 = alloca i64, align 8
  store ptr %0, ptr %3, align 8
  store ptr %1, ptr %4, align 8
  br label %6

6:                                                ; preds = %2
  %7 = load ptr, ptr %4, align 8
  %8 = ptrtoint ptr %7 to i64
  %9 = and i64 %8, 2097151
  %10 = icmp eq i64 %9, 0
  %11 = xor i1 %10, true
  %12 = xor i1 %11, true
  %13 = xor i1 %12, true
  %14 = zext i1 %13 to i32
  %15 = sext i32 %14 to i64
  %16 = icmp ne i64 %15, 0
  br i1 %16, label %17, label %18

17:                                               ; preds = %6
  call void @zend_mm_panic(ptr noundef @.str) #19
  unreachable

18:                                               ; preds = %6
  br label %19

19:                                               ; preds = %18
  %20 = load ptr, ptr %3, align 8
  %21 = load ptr, ptr %4, align 8
  %22 = call i64 @zend_mm_del_huge_block(ptr noundef %20, ptr noundef %21)
  store i64 %22, ptr %5, align 8
  %23 = load ptr, ptr %3, align 8
  %24 = load ptr, ptr %4, align 8
  %25 = load i64, ptr %5, align 8
  call void @zend_mm_chunk_free(ptr noundef %23, ptr noundef %24, i64 noundef %25)
  %26 = load i64, ptr %5, align 8
  %27 = load ptr, ptr %3, align 8
  %28 = getelementptr inbounds %struct._zend_mm_heap, ptr %27, i32 0, i32 5
  %29 = load i64, ptr %28, align 8
  %30 = sub i64 %29, %26
  store i64 %30, ptr %28, align 8
  %31 = load i64, ptr %5, align 8
  %32 = load ptr, ptr %3, align 8
  %33 = getelementptr inbounds %struct._zend_mm_heap, ptr %32, i32 0, i32 2
  %34 = load i64, ptr %33, align 8
  %35 = sub i64 %34, %31
  store i64 %35, ptr %33, align 8
  ret void
}