; Function Attrs: nounwind uwtable
define internal fastcc void @zend_mm_free_huge(ptr noundef %0, ptr noundef %1) unnamed_addr #0 {
  %3 = ptrtoint ptr %1 to i64
  %4 = and i64 %3, 2097151
  %.not = icmp eq i64 %4, 0
  br i1 %.not, label %6, label %5

5:                                                ; preds = %2
  tail call fastcc void @zend_mm_panic() #34
  unreachable

6:                                                ; preds = %2
  %7 = getelementptr inbounds i8, ptr %0, i64 304
  %.051.i12 = load ptr, ptr %7, align 8
  %.not.i13 = icmp eq ptr %.051.i12, null
  br i1 %.not.i13, label %._crit_edge, label %.lr.ph.preheader

.lr.ph.preheader:                                 ; preds = %6
  %8 = load ptr, ptr %.051.i12, align 8
  %9 = icmp eq ptr %8, %1
  br i1 %9, label %.lr.ph._crit_edge, label %.lr.ph23

.lr.ph:                                           ; preds = %.lr.ph23
  %10 = load ptr, ptr %.051.i, align 8
  %11 = icmp eq ptr %10, %1
  br i1 %11, label %.lr.ph._crit_edge, label %.lr.ph23

.lr.ph._crit_edge:                                ; preds = %.lr.ph, %.lr.ph.preheader
  %.051.i15.lcssa = phi ptr [ %.051.i12, %.lr.ph.preheader ], [ %.051.i, %.lr.ph ]
  %.0.i14.lcssa = phi ptr [ null, %.lr.ph.preheader ], [ %.051.i1522, %.lr.ph ]
  %.not53.i = icmp eq ptr %.0.i14.lcssa, null
  %12 = getelementptr inbounds i8, ptr %.051.i15.lcssa, i64 16
  %13 = load ptr, ptr %12, align 8
  %14 = getelementptr inbounds i8, ptr %.0.i14.lcssa, i64 16
  %.sink = select i1 %.not53.i, ptr %7, ptr %14
  store ptr %13, ptr %.sink, align 8
  %15 = getelementptr inbounds i8, ptr %.051.i15.lcssa, i64 8
  %16 = load i64, ptr %15, align 8
  %17 = ptrtoint ptr %.051.i15.lcssa to i64
  %18 = and i64 %17, 2097151
  %19 = icmp eq i64 %18, 0
  br i1 %19, label %20, label %21

20:                                               ; preds = %.lr.ph._crit_edge
  tail call fastcc void @zend_mm_free_huge(ptr noundef %0, ptr noundef nonnull %.051.i15.lcssa)
  br label %zend_mm_del_huge_block.exit

21:                                               ; preds = %.lr.ph._crit_edge
  %22 = and i64 %17, -2097152
  %23 = inttoptr i64 %22 to ptr
  %24 = lshr i64 %18, 12
  %25 = trunc i64 %24 to i32
  %26 = getelementptr inbounds i8, ptr %23, i64 520
  %27 = getelementptr inbounds [512 x i32], ptr %26, i64 0, i64 %24
  %28 = load i32, ptr %27, align 4
  %29 = load ptr, ptr %23, align 2097152
  %.not54.i = icmp eq ptr %29, %0
  br i1 %.not54.i, label %31, label %30

30:                                               ; preds = %21
  tail call fastcc void @zend_mm_panic() #34
  unreachable

31:                                               ; preds = %21
  %.not55.i = icmp sgt i32 %28, -1
  br i1 %.not55.i, label %44, label %32

32:                                               ; preds = %31
  %33 = and i32 %28, 31
  %34 = zext nneg i32 %33 to i64
  %35 = getelementptr inbounds [30 x i32], ptr @bin_data_size, i64 0, i64 %34
  %36 = load i32, ptr %35, align 4
  %37 = zext i32 %36 to i64
  %38 = getelementptr inbounds i8, ptr %0, i64 16
  %39 = load i64, ptr %38, align 8
  %40 = sub i64 %39, %37
  store i64 %40, ptr %38, align 8
  %41 = getelementptr inbounds i8, ptr %0, i64 32
  %42 = getelementptr inbounds [30 x ptr], ptr %41, i64 0, i64 %34
  %43 = load ptr, ptr %42, align 8
  store ptr %43, ptr %.051.i15.lcssa, align 8
  store ptr %.051.i15.lcssa, ptr %42, align 8
  br label %zend_mm_del_huge_block.exit

44:                                               ; preds = %31
  %45 = and i64 %17, 4095
  %.not56.i = icmp eq i64 %45, 0
  br i1 %.not56.i, label %47, label %46

46:                                               ; preds = %44
  tail call fastcc void @zend_mm_panic() #34
  unreachable

47:                                               ; preds = %44
  %48 = and i32 %28, 1023
  %49 = shl nuw nsw i32 %48, 12
  %50 = zext nneg i32 %49 to i64
  %51 = getelementptr inbounds i8, ptr %0, i64 16
  %52 = load i64, ptr %51, align 8
  %53 = sub i64 %52, %50
  store i64 %53, ptr %51, align 8
  tail call fastcc void @zend_mm_free_pages(ptr noundef %0, ptr noundef nonnull %23, i32 noundef %25, i32 noundef %48)
  br label %zend_mm_del_huge_block.exit

.lr.ph23:                                         ; preds = %.lr.ph.preheader, %.lr.ph
  %.051.i1522 = phi ptr [ %.051.i, %.lr.ph ], [ %.051.i12, %.lr.ph.preheader ]
  %54 = getelementptr inbounds i8, ptr %.051.i1522, i64 16
  %.051.i = load ptr, ptr %54, align 8
  %.not.i = icmp eq ptr %.051.i, null
  br i1 %.not.i, label %._crit_edge, label %.lr.ph

._crit_edge:                                      ; preds = %.lr.ph23, %6
  tail call fastcc void @zend_mm_panic() #34
  unreachable

zend_mm_del_huge_block.exit:                      ; preds = %20, %32, %47
  %55 = getelementptr i8, ptr %0, i64 8
  %.val = load ptr, ptr %55, align 8
  %.not.i9 = icmp eq ptr %.val, null
  br i1 %.not.i9, label %59, label %56

56:                                               ; preds = %zend_mm_del_huge_block.exit
  %57 = getelementptr inbounds i8, ptr %.val, i64 8
  %58 = load ptr, ptr %57, align 8
  tail call void %58(ptr noundef nonnull %.val, ptr noundef %1, i64 noundef %16) #35
  br label %zend_mm_chunk_free.exit

59:                                               ; preds = %zend_mm_del_huge_block.exit
  %60 = tail call i32 @munmap(ptr noundef %1, i64 noundef %16) #35
  %.not.i.i = icmp eq i32 %60, 0
  br i1 %.not.i.i, label %zend_mm_chunk_free.exit, label %61

61:                                               ; preds = %59
  %62 = load ptr, ptr @stderr, align 8
  %63 = tail call ptr @__errno_location() #36
  %64 = load i32, ptr %63, align 4
  %65 = tail call ptr @strerror(i32 noundef %64) #35
  %66 = tail call i32 (ptr, ptr, ...) @fprintf(ptr noundef %62, ptr noundef nonnull @.str.4, i32 noundef %64, ptr noundef %65) #37
  br label %zend_mm_chunk_free.exit

zend_mm_chunk_free.exit:                          ; preds = %56, %59, %61
  %67 = getelementptr inbounds i8, ptr %0, i64 272
  %68 = load i64, ptr %67, align 8
  %69 = sub i64 %68, %16
  store i64 %69, ptr %67, align 8
  %70 = getelementptr inbounds i8, ptr %0, i64 16
  %71 = load i64, ptr %70, align 8
  %72 = sub i64 %71, %16
  store i64 %72, ptr %70, align 8
  ret void
}